; Function Attrs: mustprogress nounwind uwtable
define dso_local void @_ZN4llvm20DefaultVLIWScheduler14postProcessDAGEv(ptr noundef nonnull align 8 dereferenceable(2656) %0) local_unnamed_addr #0 align 2 {
  %2 = getelementptr inbounds nuw i8, ptr %0, i64 2632
  %3 = load ptr, ptr %2, align 8
  %4 = getelementptr inbounds nuw i8, ptr %0, i64 2640
  %5 = load ptr, ptr %4, align 8
  %.not7 = icmp eq ptr %3, %5
  br i1 %.not7, label %._crit_edge, label %.lr.ph

.lr.ph:                                           ; preds = %1, %.lr.ph
  %.sroa.04.08 = phi ptr [ %10, %.lr.ph ], [ %3, %1 ]
  %6 = load ptr, ptr %.sroa.04.08, align 8
  %7 = load ptr, ptr %6, align 8
  %8 = getelementptr inbounds nuw i8, ptr %7, i64 24
  %9 = load ptr, ptr %8, align 8
  tail call void %9(ptr noundef nonnull align 8 dereferenceable(8) %6, ptr noundef nonnull %0) #17
  %10 = getelementptr inbounds nuw i8, ptr %.sroa.04.08, i64 8
  %.not = icmp eq ptr %10, %5
  br i1 %.not, label %._crit_edge, label %.lr.ph

._crit_edge:                                      ; preds = %.lr.ph, %1
  ret void
}